target datalayout = "e-m:e-p270:32:32-p271:32:32-p272:64:64-i64:64-i128:128-f80:128-n8:16:32:64-S128"
target triple = "x86_64-pc-linux-gnu"

%class.QString = type { %struct.QArrayDataPointer }
%struct.QArrayDataPointer = type { ptr, ptr, i64 }
%class.QSharedPointer = type { ptr, ptr }
%class.RtpPlayerDialog = type { %class.RtpBaseDialog.base, ptr, ptr, ptr, double, double, double, double, double, double, ptr, ptr, %class.QString, %class.QSharedPointer, %class.QSharedPointer.1, i8, %class.QList.2, ptr, %class.QTimer, i64, i32, ptr, i8, ptr, ptr, ptr, ptr, ptr, %class.QMultiHash, i8, i32, i8, double, ptr, %class.QPoint }
%class.RtpBaseDialog.base = type { %class.WiresharkDialog.base }
%class.WiresharkDialog.base = type <{ %class.GeometryStateDialog, ptr, i8, [7 x i8], %class.QString, %class.QList, i32, i8 }>
%class.GeometryStateDialog = type { %class.QDialog, %class.QString, ptr }
%class.QDialog = type { %class.QWidget }
%class.QWidget = type { %class.QObject, %class.QPaintDevice.base, ptr }
%class.QObject = type { ptr, %class.QScopedPointer }
%class.QScopedPointer = type { ptr }
%class.QPaintDevice.base = type <{ ptr, i16 }>
%class.QList = type { %struct.QArrayDataPointer.0 }
%struct.QArrayDataPointer.0 = type { ptr, ptr, i64 }
%class.QSharedPointer.1 = type { ptr, ptr }
%class.QList.2 = type { %struct.QArrayDataPointer.5 }
%struct.QArrayDataPointer.5 = type { ptr, ptr, i64 }
%class.QTimer = type { %class.QObject }
%class.QMultiHash = type { ptr, i64 }
%class.QPoint = type { i32, i32 }
%struct._rtpstream_info = type { %struct._rtpstream_id, i8, ptr, [256 x ptr], ptr, i8, i32, i8, i32, i32, i32, ptr, ptr, %struct.nstime_t, %struct.nstime_t, %struct.nstime_t, i16, i8, i8, %struct._tap_rtp_stat_t, i8, ptr }
%struct._rtpstream_id = type { %struct._address, i16, %struct._address, i16, i32 }
%struct._address = type { i32, i32, ptr, ptr }
%struct.nstime_t = type { i64, i32 }
%struct._tap_rtp_stat_t = type { i8, i32, i16, i64, i64, double, [300 x %struct._bw_history_item], i16, i16, i32, i32, double, double, double, double, double, double, double, double, double, double, double, double, double, double, double, double, double, double, double, i32, i32, i32, i32, i32, i16, i32, i32, i32 }
%struct._bw_history_item = type { double, i32 }

; Function Attrs: inlinehint mustprogress nounwind null_pointer_is_valid sspstrong uwtable
define linkonce_odr noundef align 8 dereferenceable(8) ptr @_Z4qMaxIdERKT_S2_S2_(ptr noundef align 8 dereferenceable(8) %0, ptr noundef align 8 dereferenceable(8) %1) #7 comdat {
  %3 = alloca ptr, align 8
  %4 = alloca ptr, align 8
  store ptr %0, ptr %3, align 8
  store ptr %1, ptr %4, align 8
  %5 = load ptr, ptr %3, align 8
  %6 = load double, ptr %5, align 8
  %7 = load ptr, ptr %4, align 8
  %8 = load double, ptr %7, align 8
  %9 = fcmp olt double %6, %8
  br i1 %9, label %10, label %12

10:                                               ; preds = %2
  %11 = load ptr, ptr %4, align 8
  br label %14

12:                                               ; preds = %2
  %13 = load ptr, ptr %3, align 8
  br label %14

14:                                               ; preds = %12, %10
  %15 = phi ptr [ %11, %10 ], [ %13, %12 ]
  ret ptr %15
}

; Function Attrs: inlinehint mustprogress nounwind null_pointer_is_valid sspstrong uwtable
define linkonce_odr noundef align 8 dereferenceable(8) ptr @_Z4qMinIdERKT_S2_S2_(ptr noundef align 8 dereferenceable(8) %0, ptr noundef align 8 dereferenceable(8) %1) #7 comdat {
  %3 = alloca ptr, align 8
  %4 = alloca ptr, align 8
  store ptr %0, ptr %3, align 8
  store ptr %1, ptr %4, align 8
  %5 = load ptr, ptr %3, align 8
  %6 = load double, ptr %5, align 8
  %7 = load ptr, ptr %4, align 8
  %8 = load double, ptr %7, align 8
  %9 = fcmp olt double %6, %8
  br i1 %9, label %10, label %12

10:                                               ; preds = %2
  %11 = load ptr, ptr %3, align 8
  br label %14

12:                                               ; preds = %2
  %13 = load ptr, ptr %4, align 8
  br label %14

14:                                               ; preds = %12, %10
  %15 = phi ptr [ %11, %10 ], [ %13, %12 ]
  ret ptr %15
}

; Function Attrs: mustprogress null_pointer_is_valid sspstrong uwtable
define void @_ZN15RtpPlayerDialog19updateStartStopTimeEP15_rtpstream_infob(ptr noundef align 8 dereferenceable_or_null(472) %0, ptr noundef %1, i1 noundef zeroext %2) #0 align 2 {
  %4 = alloca ptr, align 8
  %5 = alloca ptr, align 8
  %6 = alloca i8, align 1
  %7 = alloca double, align 8
  %8 = alloca double, align 8
  %9 = alloca double, align 8
  store ptr %0, ptr %4, align 8
  store ptr %1, ptr %5, align 8
  %10 = zext i1 %2 to i8
  store i8 %10, ptr %6, align 1
  %11 = load ptr, ptr %4, align 8
  call void @llvm.lifetime.start.p0(i64 8, ptr %7) #26
  %12 = load ptr, ptr %5, align 8
  %13 = getelementptr inbounds nuw %struct._rtpstream_info, ptr %12, i32 0, i32 13
  %14 = call double @nstime_to_sec(ptr noundef %13)
  store double %14, ptr %7, align 8
  call void @llvm.lifetime.start.p0(i64 8, ptr %8) #26
  %15 = load ptr, ptr %5, align 8
  %16 = getelementptr inbounds nuw %struct._rtpstream_info, ptr %15, i32 0, i32 15
  %17 = call double @nstime_to_sec(ptr noundef %16)
  store double %17, ptr %8, align 8
  call void @llvm.lifetime.start.p0(i64 8, ptr %9) #26
  %18 = load ptr, ptr %5, align 8
  %19 = getelementptr inbounds nuw %struct._rtpstream_info, ptr %18, i32 0, i32 14
  %20 = call double @nstime_to_sec(ptr noundef %19)
  store double %20, ptr %9, align 8
  %21 = load i8, ptr %6, align 1, !range !6, !noundef !7
  %22 = trunc i8 %21 to i1
  br i1 %22, label %23, label %30

23:                                               ; preds = %3
  %24 = load double, ptr %7, align 8
  %25 = getelementptr inbounds nuw %class.RtpPlayerDialog, ptr %11, i32 0, i32 4
  store double %24, ptr %25, align 8
  %26 = load double, ptr %8, align 8
  %27 = getelementptr inbounds nuw %class.RtpPlayerDialog, ptr %11, i32 0, i32 5
  store double %26, ptr %27, align 8
  %28 = load double, ptr %9, align 8
  %29 = getelementptr inbounds nuw %class.RtpPlayerDialog, ptr %11, i32 0, i32 6
  store double %28, ptr %29, align 8
  br label %43

30:                                               ; preds = %3
  %31 = getelementptr inbounds nuw %class.RtpPlayerDialog, ptr %11, i32 0, i32 4
  %32 = call noundef align 8 dereferenceable(8) ptr @_Z4qMinIdERKT_S2_S2_(ptr noundef align 8 dereferenceable(8) %31, ptr noundef align 8 dereferenceable(8) %7)
  %33 = load double, ptr %32, align 8
  %34 = getelementptr inbounds nuw %class.RtpPlayerDialog, ptr %11, i32 0, i32 4
  store double %33, ptr %34, align 8
  %35 = getelementptr inbounds nuw %class.RtpPlayerDialog, ptr %11, i32 0, i32 5
  %36 = call noundef align 8 dereferenceable(8) ptr @_Z4qMinIdERKT_S2_S2_(ptr noundef align 8 dereferenceable(8) %35, ptr noundef align 8 dereferenceable(8) %8)
  %37 = load double, ptr %36, align 8
  %38 = getelementptr inbounds nuw %class.RtpPlayerDialog, ptr %11, i32 0, i32 5
  store double %37, ptr %38, align 8
  %39 = getelementptr inbounds nuw %class.RtpPlayerDialog, ptr %11, i32 0, i32 6
  %40 = call noundef align 8 dereferenceable(8) ptr @_Z4qMaxIdERKT_S2_S2_(ptr noundef align 8 dereferenceable(8) %39, ptr noundef align 8 dereferenceable(8) %9)
  %41 = load double, ptr %40, align 8
  %42 = getelementptr inbounds nuw %class.RtpPlayerDialog, ptr %11, i32 0, i32 6
  store double %41, ptr %42, align 8
  br label %43

43:                                               ; preds = %30, %23
  %44 = getelementptr inbounds nuw %class.RtpPlayerDialog, ptr %11, i32 0, i32 6
  %45 = load double, ptr %44, align 8
  %46 = getelementptr inbounds nuw %class.RtpPlayerDialog, ptr %11, i32 0, i32 4
  %47 = load double, ptr %46, align 8
  %48 = fsub double %45, %47
  %49 = getelementptr inbounds nuw %class.RtpPlayerDialog, ptr %11, i32 0, i32 7
  store double %48, ptr %49, align 8
  call void @llvm.lifetime.end.p0(i64 8, ptr %9) #26
  call void @llvm.lifetime.end.p0(i64 8, ptr %8) #26
  call void @llvm.lifetime.end.p0(i64 8, ptr %7) #26
  ret void
}