; Function Attrs: mustprogress null_pointer_is_valid sspstrong uwtable
define void @_ZN15RtpPlayerDialog19updateStartStopTimeEP15_rtpstream_infob(ptr noundef align 8 captures(none) dereferenceable_or_null(472) initializes((192, 200)) %0, ptr noundef %1, i1 noundef zeroext %2) local_unnamed_addr #0 align 2 {
  %4 = getelementptr inbounds nuw i8, ptr %1, i64 2176
  %5 = tail call double @nstime_to_sec(ptr noundef nonnull %4)
  %6 = getelementptr inbounds nuw i8, ptr %1, i64 2208
  %7 = tail call double @nstime_to_sec(ptr noundef nonnull %6)
  %8 = getelementptr inbounds nuw i8, ptr %1, i64 2192
  %9 = tail call double @nstime_to_sec(ptr noundef nonnull %8)
  %10 = getelementptr inbounds nuw i8, ptr %0, i64 168
  br i1 %2, label %11, label %14

11:                                               ; preds = %3
  store double %5, ptr %10, align 8
  %12 = getelementptr inbounds nuw i8, ptr %0, i64 176
  store double %7, ptr %12, align 8
  %13 = getelementptr inbounds nuw i8, ptr %0, i64 184
  store double %9, ptr %13, align 8
  br label %23

14:                                               ; preds = %3
  %15 = load double, ptr %10, align 8
  %16 = fcmp olt double %15, %5
  %.sroa.speculated12 = select i1 %16, double %15, double %5
  store double %.sroa.speculated12, ptr %10, align 8
  %17 = getelementptr inbounds nuw i8, ptr %0, i64 176
  %18 = load double, ptr %17, align 8
  %19 = fcmp olt double %18, %7
  %.sroa.speculated7 = select i1 %19, double %18, double %7
  store double %.sroa.speculated7, ptr %17, align 8
  %20 = getelementptr inbounds nuw i8, ptr %0, i64 184
  %21 = load double, ptr %20, align 8
  %22 = fcmp olt double %21, %9
  %.sroa.speculated = select i1 %22, double %9, double %21
  store double %.sroa.speculated, ptr %20, align 8
  br label %23

23:                                               ; preds = %14, %11
  %24 = phi double [ %.sroa.speculated12, %14 ], [ %5, %11 ]
  %25 = phi double [ %.sroa.speculated, %14 ], [ %9, %11 ]
  %26 = fsub double %25, %24
  %27 = getelementptr inbounds nuw i8, ptr %0, i64 192
  store double %26, ptr %27, align 8
  ret void
}